; Function Attrs: mustprogress nounwind uwtable
define internal fastcc void @_ZNSt16allocator_traitsISaIN4absl14flags_internal12_GLOBAL__N_18ArgsListEEE7destroyIS3_EEvRS4_PT_(ptr nocapture noundef readonly %__p) unnamed_addr #4 align 2 personality ptr @__gxx_personality_v0 {
entry:
  %0 = load ptr, ptr %__p, align 8
  %_M_finish.i.i.i = getelementptr inbounds i8, ptr %__p, i64 8
  %1 = load ptr, ptr %_M_finish.i.i.i, align 8
  %cmp.not3.i.i.i.i.i.i = icmp eq ptr %0, %1
  br i1 %cmp.not3.i.i.i.i.i.i, label %invoke.cont.i.i.i, label %for.body.i.i.i.i.i.i

for.body.i.i.i.i.i.i:                             ; preds = %entry, %for.body.i.i.i.i.i.i
  %__first.addr.04.i.i.i.i.i.i = phi ptr [ %incdec.ptr.i.i.i.i.i.i, %for.body.i.i.i.i.i.i ], [ %0, %entry ]
  tail call void @_ZNSt7__cxx1112basic_stringIcSt11char_traitsIcESaIcEED1Ev(ptr noundef nonnull align 8 dereferenceable(32) %__first.addr.04.i.i.i.i.i.i) #22
  %incdec.ptr.i.i.i.i.i.i = getelementptr inbounds i8, ptr %__first.addr.04.i.i.i.i.i.i, i64 32
  %cmp.not.i.i.i.i.i.i = icmp eq ptr %incdec.ptr.i.i.i.i.i.i, %1
  br i1 %cmp.not.i.i.i.i.i.i, label %invoke.contthread-pre-split.i.i.i, label %for.body.i.i.i.i.i.i, !llvm.loop !5

invoke.contthread-pre-split.i.i.i:                ; preds = %for.body.i.i.i.i.i.i
  %.pr.i.i.i = load ptr, ptr %__p, align 8
  br label %invoke.cont.i.i.i

invoke.cont.i.i.i:                                ; preds = %invoke.contthread-pre-split.i.i.i, %entry
  %2 = phi ptr [ %.pr.i.i.i, %invoke.contthread-pre-split.i.i.i ], [ %0, %entry ]
  %tobool.not.i.i.i.i.i = icmp eq ptr %2, null
  br i1 %tobool.not.i.i.i.i.i, label %_ZNSt15__new_allocatorIN4absl14flags_internal12_GLOBAL__N_18ArgsListEE7destroyIS3_EEvPT_.exit, label %if.then.i.i.i.i.i

if.then.i.i.i.i.i:                                ; preds = %invoke.cont.i.i.i
  tail call void @_ZdlPv(ptr noundef nonnull %2) #23
  br label %_ZNSt15__new_allocatorIN4absl14flags_internal12_GLOBAL__N_18ArgsListEE7destroyIS3_EEvPT_.exit

_ZNSt15__new_allocatorIN4absl14flags_internal12_GLOBAL__N_18ArgsListEE7destroyIS3_EEvPT_.exit: ; preds = %invoke.cont.i.i.i, %if.then.i.i.i.i.i
  ret void
}